target datalayout = "e-m:e-p270:32:32-p271:32:32-p272:64:64-i64:64-i128:128-f80:128-n8:16:32:64-S128"
target triple = "x86_64-pc-linux-gnu"

%"class.boost::nowide::detail::console_output_buffer_base" = type { %"class.std::basic_streambuf", [1024 x i8], [1024 x i32] }
%"class.std::basic_streambuf" = type { ptr, ptr, ptr, ptr, ptr, ptr, ptr, %"class.std::locale" }
%"class.std::locale" = type { ptr }

; Function Attrs: mustprogress nounwind uwtable
define linkonce_odr hidden noundef i32 @_ZNSt11char_traitsIcE11to_int_typeERKc(ptr noundef nonnull align 1 dereferenceable(1) %0) #1 comdat align 2 {
  %2 = alloca ptr, align 8
  store ptr %0, ptr %2, align 8, !tbaa !3
  %3 = load ptr, ptr %2, align 8, !tbaa !3
  %4 = load i8, ptr %3, align 1, !tbaa !20
  %5 = zext i8 %4 to i32
  ret i32 %5
}

; Function Attrs: mustprogress nounwind uwtable
define available_externally noundef ptr @_ZNKSt15basic_streambufIcSt11char_traitsIcEE5epptrEv(ptr noundef nonnull align 8 dereferenceable(64) %0) #1 align 2 {
  %2 = alloca ptr, align 8
  store ptr %0, ptr %2, align 8, !tbaa !3
  %3 = load ptr, ptr %2, align 8
  %4 = getelementptr inbounds nuw %"class.std::basic_streambuf", ptr %3, i32 0, i32 6
  %5 = load ptr, ptr %4, align 8, !tbaa !19
  ret ptr %5
}

; Function Attrs: mustprogress nounwind uwtable
define linkonce_odr hidden noundef ptr @_ZN5boost6nowide3utf10utf_traitsIwLi4EE6encodeIPwEET_jS6_(i32 noundef %0, ptr noundef %1) #1 comdat align 2 {
  %3 = alloca i32, align 4
  %4 = alloca ptr, align 8
  store i32 %0, ptr %3, align 4, !tbaa !9
  store ptr %1, ptr %4, align 8, !tbaa !3
  %5 = load i32, ptr %3, align 4, !tbaa !9
  %6 = load ptr, ptr %4, align 8, !tbaa !3
  %7 = getelementptr inbounds nuw i32, ptr %6, i32 1
  store ptr %7, ptr %4, align 8, !tbaa !3
  store i32 %5, ptr %6, align 4, !tbaa !21
  %8 = load ptr, ptr %4, align 8, !tbaa !3
  ret ptr %8
}

; Function Attrs: mustprogress uwtable
define available_externally noundef i32 @_ZNSt15basic_streambufIcSt11char_traitsIcEE5sputcEc(ptr noundef nonnull align 8 dereferenceable(64) %0, i8 noundef signext %1) #0 align 2 {
  %3 = alloca ptr, align 8
  %4 = alloca i8, align 1
  %5 = alloca i32, align 4
  store ptr %0, ptr %3, align 8, !tbaa !3
  store i8 %1, ptr %4, align 1, !tbaa !20
  %6 = load ptr, ptr %3, align 8
  call void @llvm.lifetime.start.p0(i64 4, ptr %5) #15
  %7 = call noundef ptr @_ZNKSt15basic_streambufIcSt11char_traitsIcEE4pptrEv(ptr noundef nonnull align 8 dereferenceable(64) %6)
  %8 = call noundef ptr @_ZNKSt15basic_streambufIcSt11char_traitsIcEE5epptrEv(ptr noundef nonnull align 8 dereferenceable(64) %6)
  %9 = icmp ult ptr %7, %8
  %10 = zext i1 %9 to i64
  %11 = call i64 @llvm.expect.i64(i64 %10, i64 1)
  %12 = icmp ne i64 %11, 0
  br i1 %12, label %13, label %17

13:                                               ; preds = %2
  %14 = load i8, ptr %4, align 1, !tbaa !20
  %15 = call noundef ptr @_ZNKSt15basic_streambufIcSt11char_traitsIcEE4pptrEv(ptr noundef nonnull align 8 dereferenceable(64) %6)
  store i8 %14, ptr %15, align 1, !tbaa !20
  call void @_ZNSt15basic_streambufIcSt11char_traitsIcEE5pbumpEi(ptr noundef nonnull align 8 dereferenceable(64) %6, i32 noundef 1)
  %16 = call noundef i32 @_ZNSt11char_traitsIcE11to_int_typeERKc(ptr noundef nonnull align 1 dereferenceable(1) %4) #15
  store i32 %16, ptr %5, align 4, !tbaa !9
  br label %23

17:                                               ; preds = %2
  %18 = call noundef i32 @_ZNSt11char_traitsIcE11to_int_typeERKc(ptr noundef nonnull align 1 dereferenceable(1) %4) #15
  %19 = load ptr, ptr %6, align 8, !tbaa !7
  %20 = getelementptr inbounds ptr, ptr %19, i64 13
  %21 = load ptr, ptr %20, align 8
  %22 = call noundef i32 %21(ptr noundef nonnull align 8 dereferenceable(64) %6, i32 noundef %18)
  store i32 %22, ptr %5, align 4, !tbaa !9
  br label %23

23:                                               ; preds = %17, %13
  %24 = load i32, ptr %5, align 4, !tbaa !9
  call void @llvm.lifetime.end.p0(i64 4, ptr %5) #15
  ret i32 %24
}

; Function Attrs: mustprogress nounwind uwtable
define linkonce_odr hidden noundef signext i8 @_ZNSt11char_traitsIcE12to_char_typeERKi(ptr noundef nonnull align 4 dereferenceable(4) %0) #1 comdat align 2 {
  %2 = alloca ptr, align 8
  store ptr %0, ptr %2, align 8, !tbaa !3
  %3 = load ptr, ptr %2, align 8, !tbaa !3
  %4 = load i32, ptr %3, align 4, !tbaa !9
  %5 = trunc i32 %4 to i8
  ret i8 %5
}

; Function Attrs: mustprogress nounwind uwtable
define linkonce_odr hidden noundef i32 @_ZNSt11char_traitsIcE3eofEv() #1 comdat align 2 {
  ret i32 -1
}

; Function Attrs: mustprogress nounwind uwtable
define available_externally void @_ZNSt15basic_streambufIcSt11char_traitsIcEE5pbumpEi(ptr noundef nonnull align 8 dereferenceable(64) %0, i32 noundef %1) #1 align 2 {
  %3 = alloca ptr, align 8
  %4 = alloca i32, align 4
  store ptr %0, ptr %3, align 8, !tbaa !3
  store i32 %1, ptr %4, align 4, !tbaa !9
  %5 = load ptr, ptr %3, align 8
  %6 = load i32, ptr %4, align 4, !tbaa !9
  %7 = getelementptr inbounds nuw %"class.std::basic_streambuf", ptr %5, i32 0, i32 5
  %8 = load ptr, ptr %7, align 8, !tbaa !11
  %9 = sext i32 %6 to i64
  %10 = getelementptr inbounds i8, ptr %8, i64 %9
  store ptr %10, ptr %7, align 8, !tbaa !11
  ret void
}

; Function Attrs: mustprogress nounwind uwtable
define available_externally void @_ZNSt15basic_streambufIcSt11char_traitsIcEE4setpEPcS3_(ptr noundef nonnull align 8 dereferenceable(64) %0, ptr noundef %1, ptr noundef %2) #1 align 2 {
  %4 = alloca ptr, align 8
  %5 = alloca ptr, align 8
  %6 = alloca ptr, align 8
  store ptr %0, ptr %4, align 8, !tbaa !3
  store ptr %1, ptr %5, align 8, !tbaa !3
  store ptr %2, ptr %6, align 8, !tbaa !3
  %7 = load ptr, ptr %4, align 8
  %8 = load ptr, ptr %5, align 8, !tbaa !3
  %9 = getelementptr inbounds nuw %"class.std::basic_streambuf", ptr %7, i32 0, i32 5
  store ptr %8, ptr %9, align 8, !tbaa !11
  %10 = getelementptr inbounds nuw %"class.std::basic_streambuf", ptr %7, i32 0, i32 4
  store ptr %8, ptr %10, align 8, !tbaa !14
  %11 = load ptr, ptr %6, align 8, !tbaa !3
  %12 = getelementptr inbounds nuw %"class.std::basic_streambuf", ptr %7, i32 0, i32 6
  store ptr %11, ptr %12, align 8, !tbaa !19
  ret void
}

; Function Attrs: mustprogress uwtable
define noundef i32 @_ZN5boost6nowide6detail26console_output_buffer_base5writeEPKci(ptr noundef nonnull align 8 dereferenceable(5184) %0, ptr noundef %1, i32 noundef %2) #0 align 2 {
  %4 = alloca i32, align 4
  %5 = alloca ptr, align 8
  %6 = alloca ptr, align 8
  %7 = alloca i32, align 4
  %8 = alloca ptr, align 8
  %9 = alloca ptr, align 8
  %10 = alloca i32, align 4
  %11 = alloca ptr, align 8
  %12 = alloca i32, align 4
  %13 = alloca i64, align 8
  %14 = alloca i64, align 8
  store ptr %0, ptr %5, align 8, !tbaa !3
  store ptr %1, ptr %6, align 8, !tbaa !3
  store i32 %2, ptr %7, align 4, !tbaa !9
  %15 = load ptr, ptr %5, align 8
  call void @llvm.lifetime.start.p0(i64 8, ptr %8) #15
  %16 = load ptr, ptr %6, align 8, !tbaa !3
  store ptr %16, ptr %8, align 8, !tbaa !3
  call void @llvm.lifetime.start.p0(i64 8, ptr %9) #15
  %17 = load ptr, ptr %6, align 8, !tbaa !3
  %18 = load i32, ptr %7, align 4, !tbaa !9
  %19 = sext i32 %18 to i64
  %20 = getelementptr inbounds i8, ptr %17, i64 %19
  store ptr %20, ptr %9, align 8, !tbaa !3
  %21 = load i32, ptr %7, align 4, !tbaa !9
  %22 = icmp sgt i32 %21, 1024
  br i1 %22, label %23, label %24

23:                                               ; preds = %3
  store i32 -1, ptr %4, align 4
  store i32 1, ptr %10, align 4
  br label %63

24:                                               ; preds = %3
  call void @llvm.lifetime.start.p0(i64 8, ptr %11) #15
  %25 = getelementptr inbounds nuw %"class.boost::nowide::detail::console_output_buffer_base", ptr %15, i32 0, i32 2
  %26 = getelementptr inbounds [1024 x i32], ptr %25, i64 0, i64 0
  store ptr %26, ptr %11, align 8, !tbaa !3
  call void @llvm.lifetime.start.p0(i64 4, ptr %12) #15
  call void @llvm.lifetime.start.p0(i64 8, ptr %13) #15
  store i64 0, ptr %13, align 8, !tbaa !15
  br label %27

27:                                               ; preds = %35, %24
  %28 = load ptr, ptr %9, align 8, !tbaa !3
  %29 = call noundef i32 @_ZN5boost6nowide3utf10utf_traitsIcLi1EE6decodeIPKcEEjRT_S7_(ptr noundef nonnull align 8 dereferenceable(8) %6, ptr noundef %28)
  store i32 %29, ptr %12, align 4, !tbaa !9
  %30 = icmp ne i32 %29, -2
  br i1 %30, label %31, label %44

31:                                               ; preds = %27
  %32 = load i32, ptr %12, align 4, !tbaa !9
  %33 = icmp eq i32 %32, -1
  br i1 %33, label %34, label %35

34:                                               ; preds = %31
  store i32 65533, ptr %12, align 4, !tbaa !9
  br label %35

35:                                               ; preds = %34, %31
  %36 = load i32, ptr %12, align 4, !tbaa !9
  %37 = load ptr, ptr %11, align 8, !tbaa !3
  %38 = call noundef ptr @_ZN5boost6nowide3utf10utf_traitsIwLi4EE6encodeIPwEET_jS6_(i32 noundef %36, ptr noundef %37)
  store ptr %38, ptr %11, align 8, !tbaa !3
  %39 = load ptr, ptr %6, align 8, !tbaa !3
  %40 = load ptr, ptr %8, align 8, !tbaa !3
  %41 = ptrtoint ptr %39 to i64
  %42 = ptrtoint ptr %40 to i64
  %43 = sub i64 %41, %42
  store i64 %43, ptr %13, align 8, !tbaa !15
  br label %27, !llvm.loop !17

44:                                               ; preds = %27
  call void @llvm.lifetime.start.p0(i64 8, ptr %14) #15
  store i64 0, ptr %14, align 8, !tbaa !15
  %45 = getelementptr inbounds nuw %"class.boost::nowide::detail::console_output_buffer_base", ptr %15, i32 0, i32 2
  %46 = getelementptr inbounds [1024 x i32], ptr %45, i64 0, i64 0
  %47 = load ptr, ptr %11, align 8, !tbaa !3
  %48 = getelementptr inbounds nuw %"class.boost::nowide::detail::console_output_buffer_base", ptr %15, i32 0, i32 2
  %49 = getelementptr inbounds [1024 x i32], ptr %48, i64 0, i64 0
  %50 = ptrtoint ptr %47 to i64
  %51 = ptrtoint ptr %49 to i64
  %52 = sub i64 %50, %51
  %53 = sdiv exact i64 %52, 4
  %54 = load ptr, ptr %15, align 8, !tbaa !7
  %55 = getelementptr inbounds ptr, ptr %54, i64 14
  %56 = load ptr, ptr %55, align 8
  %57 = call noundef zeroext i1 %56(ptr noundef nonnull align 8 dereferenceable(5184) %15, ptr noundef %46, i64 noundef %53, ptr noundef nonnull align 8 dereferenceable(8) %14)
  br i1 %57, label %59, label %58

58:                                               ; preds = %44
  store i32 -1, ptr %4, align 4
  store i32 1, ptr %10, align 4
  br label %62

59:                                               ; preds = %44
  %60 = load i64, ptr %13, align 8, !tbaa !15
  %61 = trunc i64 %60 to i32
  store i32 %61, ptr %4, align 4
  store i32 1, ptr %10, align 4
  br label %62

62:                                               ; preds = %59, %58
  call void @llvm.lifetime.end.p0(i64 8, ptr %14) #15
  call void @llvm.lifetime.end.p0(i64 8, ptr %13) #15
  call void @llvm.lifetime.end.p0(i64 4, ptr %12) #15
  call void @llvm.lifetime.end.p0(i64 8, ptr %11) #15
  br label %63

63:                                               ; preds = %62, %23
  call void @llvm.lifetime.end.p0(i64 8, ptr %9) #15
  call void @llvm.lifetime.end.p0(i64 8, ptr %8) #15
  %64 = load i32, ptr %4, align 4
  ret i32 %64
}

; Function Attrs: mustprogress nounwind uwtable
define available_externally noundef ptr @_ZNKSt15basic_streambufIcSt11char_traitsIcEE5pbaseEv(ptr noundef nonnull align 8 dereferenceable(64) %0) #1 align 2 {
  %2 = alloca ptr, align 8
  store ptr %0, ptr %2, align 8, !tbaa !3
  %3 = load ptr, ptr %2, align 8
  %4 = getelementptr inbounds nuw %"class.std::basic_streambuf", ptr %3, i32 0, i32 4
  %5 = load ptr, ptr %4, align 8, !tbaa !14
  ret ptr %5
}

; Function Attrs: mustprogress nounwind uwtable
define available_externally noundef ptr @_ZNKSt15basic_streambufIcSt11char_traitsIcEE4pptrEv(ptr noundef nonnull align 8 dereferenceable(64) %0) #1 align 2 {
  %2 = alloca ptr, align 8
  store ptr %0, ptr %2, align 8, !tbaa !3
  %3 = load ptr, ptr %2, align 8
  %4 = getelementptr inbounds nuw %"class.std::basic_streambuf", ptr %3, i32 0, i32 5
  %5 = load ptr, ptr %4, align 8, !tbaa !11
  ret ptr %5
}

; Function Attrs: mustprogress uwtable
define noundef i32 @_ZN5boost6nowide6detail26console_output_buffer_base8overflowEi(ptr noundef nonnull align 8 dereferenceable(5184) %0, i32 noundef %1) unnamed_addr #0 align 2 {
  %3 = alloca i32, align 4
  %4 = alloca ptr, align 8
  %5 = alloca i32, align 4
  %6 = alloca i32, align 4
  %7 = alloca i32, align 4
  %8 = alloca i32, align 4
  store ptr %0, ptr %4, align 8, !tbaa !3
  store i32 %1, ptr %5, align 4, !tbaa !9
  %9 = load ptr, ptr %4, align 8
  call void @llvm.lifetime.start.p0(i64 4, ptr %6) #15
  %10 = call noundef ptr @_ZNKSt15basic_streambufIcSt11char_traitsIcEE4pptrEv(ptr noundef nonnull align 8 dereferenceable(64) %9)
  %11 = call noundef ptr @_ZNKSt15basic_streambufIcSt11char_traitsIcEE5pbaseEv(ptr noundef nonnull align 8 dereferenceable(64) %9)
  %12 = ptrtoint ptr %10 to i64
  %13 = ptrtoint ptr %11 to i64
  %14 = sub i64 %12, %13
  %15 = trunc i64 %14 to i32
  store i32 %15, ptr %6, align 4, !tbaa !9
  call void @llvm.lifetime.start.p0(i64 4, ptr %7) #15
  store i32 0, ptr %7, align 4, !tbaa !9
  %16 = load i32, ptr %6, align 4, !tbaa !9
  %17 = icmp sgt i32 %16, 0
  br i1 %17, label %18, label %24

18:                                               ; preds = %2
  %19 = call noundef ptr @_ZNKSt15basic_streambufIcSt11char_traitsIcEE5pbaseEv(ptr noundef nonnull align 8 dereferenceable(64) %9)
  %20 = load i32, ptr %6, align 4, !tbaa !9
  %21 = call noundef i32 @_ZN5boost6nowide6detail26console_output_buffer_base5writeEPKci(ptr noundef nonnull align 8 dereferenceable(5184) %9, ptr noundef %19, i32 noundef %20)
  store i32 %21, ptr %7, align 4, !tbaa !9
  %22 = icmp slt i32 %21, 0
  br i1 %22, label %23, label %24

23:                                               ; preds = %18
  store i32 -1, ptr %3, align 4
  store i32 1, ptr %8, align 4
  br label %54

24:                                               ; preds = %18, %2
  %25 = load i32, ptr %7, align 4, !tbaa !9
  %26 = load i32, ptr %6, align 4, !tbaa !9
  %27 = icmp slt i32 %25, %26
  br i1 %27, label %28, label %38

28:                                               ; preds = %24
  %29 = call noundef ptr @_ZNKSt15basic_streambufIcSt11char_traitsIcEE5pbaseEv(ptr noundef nonnull align 8 dereferenceable(64) %9)
  %30 = call noundef ptr @_ZNKSt15basic_streambufIcSt11char_traitsIcEE5pbaseEv(ptr noundef nonnull align 8 dereferenceable(64) %9)
  %31 = load i32, ptr %7, align 4, !tbaa !9
  %32 = sext i32 %31 to i64
  %33 = getelementptr inbounds i8, ptr %30, i64 %32
  %34 = load i32, ptr %6, align 4, !tbaa !9
  %35 = load i32, ptr %7, align 4, !tbaa !9
  %36 = sub nsw i32 %34, %35
  %37 = sext i32 %36 to i64
  call void @llvm.memmove.p0.p0.i64(ptr align 1 %29, ptr align 1 %33, i64 %37, i1 false)
  br label %38

38:                                               ; preds = %28, %24
  %39 = getelementptr inbounds nuw %"class.boost::nowide::detail::console_output_buffer_base", ptr %9, i32 0, i32 1
  %40 = getelementptr inbounds [1024 x i8], ptr %39, i64 0, i64 0
  %41 = getelementptr inbounds nuw %"class.boost::nowide::detail::console_output_buffer_base", ptr %9, i32 0, i32 1
  %42 = getelementptr inbounds [1024 x i8], ptr %41, i64 0, i64 0
  %43 = getelementptr inbounds i8, ptr %42, i64 1024
  call void @_ZNSt15basic_streambufIcSt11char_traitsIcEE4setpEPcS3_(ptr noundef nonnull align 8 dereferenceable(64) %9, ptr noundef %40, ptr noundef %43)
  %44 = load i32, ptr %6, align 4, !tbaa !9
  %45 = load i32, ptr %7, align 4, !tbaa !9
  %46 = sub nsw i32 %44, %45
  call void @_ZNSt15basic_streambufIcSt11char_traitsIcEE5pbumpEi(ptr noundef nonnull align 8 dereferenceable(64) %9, i32 noundef %46)
  %47 = load i32, ptr %5, align 4, !tbaa !9
  %48 = call noundef i32 @_ZNSt11char_traitsIcE3eofEv() #15
  %49 = icmp ne i32 %47, %48
  br i1 %49, label %50, label %53

50:                                               ; preds = %38
  %51 = call noundef signext i8 @_ZNSt11char_traitsIcE12to_char_typeERKi(ptr noundef nonnull align 4 dereferenceable(4) %5) #15
  %52 = call noundef i32 @_ZNSt15basic_streambufIcSt11char_traitsIcEE5sputcEc(ptr noundef nonnull align 8 dereferenceable(64) %9, i8 noundef signext %51)
  br label %53

53:                                               ; preds = %50, %38
  store i32 0, ptr %3, align 4
  store i32 1, ptr %8, align 4
  br label %54

54:                                               ; preds = %53, %23
  call void @llvm.lifetime.end.p0(i64 4, ptr %7) #15
  call void @llvm.lifetime.end.p0(i64 4, ptr %6) #15
  %55 = load i32, ptr %3, align 4
  ret i32 %55
}