; Function Attrs: mustprogress uwtable
define noundef range(i32 -1, 1) i32 @_ZN5boost6nowide6detail26console_output_buffer_base8overflowEi(ptr noundef nonnull align 8 dereferenceable(5184) %0, i32 noundef %1) unnamed_addr #0 align 2 {
  %3 = alloca ptr, align 8
  %4 = alloca i64, align 8
  %5 = getelementptr inbounds nuw i8, ptr %0, i64 40
  %6 = load ptr, ptr %5, align 8, !tbaa !6
  %7 = getelementptr inbounds nuw i8, ptr %0, i64 32
  %8 = load ptr, ptr %7, align 8, !tbaa !11
  %9 = ptrtoint ptr %6 to i64
  %10 = ptrtoint ptr %8 to i64
  %11 = sub i64 %9, %10
  %12 = trunc i64 %11 to i32
  %13 = icmp sgt i32 %12, 0
  br i1 %13, label %14, label %39

14:                                               ; preds = %2
  call void @llvm.lifetime.start.p0(i64 8, ptr nonnull %3)
  store ptr %8, ptr %3, align 8, !tbaa !12
  %15 = and i64 %11, 2147483647
  %16 = getelementptr inbounds i8, ptr %8, i64 %15
  %17 = icmp ugt i32 %12, 1024
  br i1 %17, label %_ZN5boost6nowide6detail26console_output_buffer_base5writeEPKci.exit.thread, label %18

18:                                               ; preds = %14
  %19 = getelementptr inbounds nuw i8, ptr %0, i64 1088
  %20 = call noundef i32 @_ZN5boost6nowide3utf10utf_traitsIcLi1EE6decodeIPKcEEjRT_S7_(ptr noundef nonnull align 8 dereferenceable(8) %3, ptr noundef %16)
  %.not13.i = icmp eq i32 %20, -2
  br i1 %.not13.i, label %29, label %.lr.ph.i

.lr.ph.i:                                         ; preds = %18, %.lr.ph.i
  %21 = phi i32 [ %25, %.lr.ph.i ], [ %20, %18 ]
  %.01014.i = phi ptr [ %23, %.lr.ph.i ], [ %19, %18 ]
  %22 = icmp eq i32 %21, -1
  %spec.store.select.i = select i1 %22, i32 65533, i32 %21
  %23 = getelementptr inbounds nuw i8, ptr %.01014.i, i64 4
  store i32 %spec.store.select.i, ptr %.01014.i, align 4, !tbaa !13
  %24 = load ptr, ptr %3, align 8, !tbaa !12
  %25 = call noundef i32 @_ZN5boost6nowide3utf10utf_traitsIcLi1EE6decodeIPKcEEjRT_S7_(ptr noundef nonnull align 8 dereferenceable(8) %3, ptr noundef %16)
  %.not.i = icmp eq i32 %25, -2
  br i1 %.not.i, label %._crit_edge.i, label %.lr.ph.i, !llvm.loop !15

._crit_edge.i:                                    ; preds = %.lr.ph.i
  %26 = ptrtoint ptr %24 to i64
  %27 = sub i64 %26, %10
  %28 = trunc i64 %27 to i32
  br label %29

29:                                               ; preds = %._crit_edge.i, %18
  %.010.lcssa.i = phi ptr [ %23, %._crit_edge.i ], [ %19, %18 ]
  %.0.lcssa.i = phi i32 [ %28, %._crit_edge.i ], [ 0, %18 ]
  call void @llvm.lifetime.start.p0(i64 8, ptr nonnull %4) #14
  store i64 0, ptr %4, align 8, !tbaa !17
  %30 = ptrtoint ptr %.010.lcssa.i to i64
  %31 = ptrtoint ptr %19 to i64
  %32 = sub i64 %30, %31
  %33 = ashr exact i64 %32, 2
  %34 = load ptr, ptr %0, align 8, !tbaa !3
  %35 = getelementptr inbounds i8, ptr %34, i64 112
  %36 = load ptr, ptr %35, align 8
  %37 = call noundef zeroext i1 %36(ptr noundef nonnull align 8 dereferenceable(5184) %0, ptr noundef nonnull %19, i64 noundef %33, ptr noundef nonnull align 8 dereferenceable(8) %4)
  call void @llvm.lifetime.end.p0(i64 8, ptr nonnull %4) #14
  br i1 %37, label %_ZN5boost6nowide6detail26console_output_buffer_base5writeEPKci.exit, label %_ZN5boost6nowide6detail26console_output_buffer_base5writeEPKci.exit.thread

_ZN5boost6nowide6detail26console_output_buffer_base5writeEPKci.exit.thread: ; preds = %29, %14
  call void @llvm.lifetime.end.p0(i64 8, ptr nonnull %3)
  br label %_ZNSt15basic_streambufIcSt11char_traitsIcEE5sputcEc.exit

_ZN5boost6nowide6detail26console_output_buffer_base5writeEPKci.exit: ; preds = %29
  call void @llvm.lifetime.end.p0(i64 8, ptr nonnull %3)
  %38 = icmp slt i32 %.0.lcssa.i, 0
  br i1 %38, label %_ZNSt15basic_streambufIcSt11char_traitsIcEE5sputcEc.exit, label %39

39:                                               ; preds = %_ZN5boost6nowide6detail26console_output_buffer_base5writeEPKci.exit, %2
  %.0 = phi i32 [ %.0.lcssa.i, %_ZN5boost6nowide6detail26console_output_buffer_base5writeEPKci.exit ], [ 0, %2 ]
  %40 = icmp slt i32 %.0, %12
  br i1 %40, label %41, label %._crit_edge

._crit_edge:                                      ; preds = %39
  %.pre = sub nsw i32 %12, %.0
  %.pre18 = sext i32 %.pre to i64
  br label %47

41:                                               ; preds = %39
  %42 = load ptr, ptr %7, align 8, !tbaa !11
  %43 = zext nneg i32 %.0 to i64
  %44 = getelementptr inbounds i8, ptr %42, i64 %43
  %45 = sub nsw i32 %12, %.0
  %46 = sext i32 %45 to i64
  call void @llvm.memmove.p0.p0.i64(ptr align 1 %42, ptr align 1 %44, i64 %46, i1 false)
  br label %47

47:                                               ; preds = %._crit_edge, %41
  %.pre-phi19 = phi i64 [ %.pre18, %._crit_edge ], [ %46, %41 ]
  %.pre-phi = phi i32 [ %.pre, %._crit_edge ], [ %45, %41 ]
  %.ptr = getelementptr inbounds i8, ptr %0, i64 64
  %48 = getelementptr inbounds i8, ptr %0, i64 1088
  store ptr %.ptr, ptr %7, align 8, !tbaa !11
  %49 = getelementptr inbounds nuw i8, ptr %0, i64 48
  store ptr %48, ptr %49, align 8, !tbaa !19
  %50 = getelementptr i8, ptr %0, i64 %.pre-phi19
  %.ptr15 = getelementptr i8, ptr %50, i64 64
  store ptr %.ptr15, ptr %5, align 8, !tbaa !6
  %.not = icmp eq i32 %1, -1
  br i1 %.not, label %_ZNSt15basic_streambufIcSt11char_traitsIcEE5sputcEc.exit, label %51

51:                                               ; preds = %47
  %52 = icmp slt i32 %.pre-phi, 1024
  br i1 %52, label %53, label %57, !prof !20

53:                                               ; preds = %51
  %54 = trunc i32 %1 to i8
  store i8 %54, ptr %.ptr15, align 1, !tbaa !21
  %55 = load ptr, ptr %5, align 8, !tbaa !6
  %56 = getelementptr inbounds i8, ptr %55, i64 1
  store ptr %56, ptr %5, align 8, !tbaa !6
  br label %_ZNSt15basic_streambufIcSt11char_traitsIcEE5sputcEc.exit

57:                                               ; preds = %51
  %58 = and i32 %1, 255
  %59 = load ptr, ptr %0, align 8, !tbaa !3
  %60 = getelementptr inbounds i8, ptr %59, i64 104
  %61 = load ptr, ptr %60, align 8
  %62 = call noundef i32 %61(ptr noundef nonnull align 8 dereferenceable(64) %0, i32 noundef %58)
  br label %_ZNSt15basic_streambufIcSt11char_traitsIcEE5sputcEc.exit

_ZNSt15basic_streambufIcSt11char_traitsIcEE5sputcEc.exit: ; preds = %57, %53, %_ZN5boost6nowide6detail26console_output_buffer_base5writeEPKci.exit.thread, %47, %_ZN5boost6nowide6detail26console_output_buffer_base5writeEPKci.exit
  %.010 = phi i32 [ -1, %_ZN5boost6nowide6detail26console_output_buffer_base5writeEPKci.exit ], [ 0, %47 ], [ -1, %_ZN5boost6nowide6detail26console_output_buffer_base5writeEPKci.exit.thread ], [ 0, %53 ], [ 0, %57 ]
  ret i32 %.010
}